; Function Attrs: nounwind uwtable
define internal i32 @Lzma2State_Code(ptr noundef %0, ptr noundef %1, ptr noundef %2, ptr noundef %3, ptr noundef %4, i32 %5, i32 noundef %6, ptr noundef writeonly captures(none) initializes((0, 4)) %7) #1 {
  %9 = alloca i32, align 4
  %10 = call i32 @Lzma2Dec_DecodeToBuf(ptr noundef %0, ptr noundef %1, ptr noundef %2, ptr noundef %3, ptr noundef %4, i32 noundef %6, ptr noundef nonnull %9) #10
  %11 = load i32, ptr %9, align 4
  %12 = icmp eq i32 %11, 1
  %13 = zext i1 %12 to i32
  store i32 %13, ptr %7, align 4
  ret i32 %10
}